target datalayout = "e-m:e-p270:32:32-p271:32:32-p272:64:64-i64:64-i128:128-f80:128-n8:16:32:64-S128"
target triple = "x86_64-unknown-linux-gnu"

%struct.X509_pubkey_st = type { ptr, ptr, ptr }

; Function Attrs: nounwind uwtable
define internal i32 @pubkey_cb(i32 noundef %operation, ptr noundef %pval, ptr noundef %it, ptr noundef %exarg) #0 {
entry:
  %operation.addr = alloca i32, align 4
  %pval.addr = alloca ptr, align 8
  %it.addr = alloca ptr, align 8
  %exarg.addr = alloca ptr, align 8
  %pubkey = alloca ptr, align 8
  store i32 %operation, ptr %operation.addr, align 4
  store ptr %pval, ptr %pval.addr, align 8
  store ptr %it, ptr %it.addr, align 8
  store ptr %exarg, ptr %exarg.addr, align 8
  %0 = load i32, ptr %operation.addr, align 4
  %cmp = icmp eq i32 %0, 3
  br i1 %cmp, label %if.then, label %if.end

if.then:                                          ; preds = %entry
  %1 = load ptr, ptr %pval.addr, align 8
  %2 = load ptr, ptr %1, align 8
  store ptr %2, ptr %pubkey, align 8
  %3 = load ptr, ptr %pubkey, align 8
  %pkey = getelementptr inbounds %struct.X509_pubkey_st, ptr %3, i32 0, i32 2
  %4 = load ptr, ptr %pkey, align 8
  call void @EVP_PKEY_free(ptr noundef %4)
  br label %if.end

if.end:                                           ; preds = %if.then, %entry
  ret i32 1
}