; Function Attrs: nounwind uwtable
define internal noundef i32 @pubkey_cb(i32 noundef %operation, ptr noundef readonly captures(none) %pval, ptr readnone captures(none) %it, ptr readnone captures(none) %exarg) #0 {
entry:
  %cmp = icmp eq i32 %operation, 3
  br i1 %cmp, label %if.then, label %if.end

if.then:                                          ; preds = %entry
  %0 = load ptr, ptr %pval, align 8
  %pkey = getelementptr inbounds nuw i8, ptr %0, i64 16
  %1 = load ptr, ptr %pkey, align 8
  tail call void @EVP_PKEY_free(ptr noundef %1) #5
  br label %if.end

if.end:                                           ; preds = %if.then, %entry
  ret i32 1
}